target datalayout = "e-m:e-p270:32:32-p271:32:32-p272:64:64-i64:64-i128:128-f80:128-n8:16:32:64-S128"
target triple = "x86_64-pc-linux-gnu"

%struct.z_stream_s = type { ptr, i32, i64, ptr, i32, i64, ptr, ptr, ptr, ptr, ptr, i32, i64, i64 }
%struct.wtap_writer = type { i32, i64, i32, i32, ptr, ptr, ptr, i32, i32, i32, ptr, %struct.z_stream_s }

@.str = private unnamed_addr constant [7 x i8] c"1.2.11\00", align 1
@.str.21 = private unnamed_addr constant [34 x i8] c"Unknown error from deflateInit2()\00", align 1

; Function Attrs: null_pointer_is_valid sspstrong uwtable
define internal i32 @gz_init(ptr noundef %0) #0 {
  %2 = alloca i32, align 4
  %3 = alloca ptr, align 8
  %4 = alloca i32, align 4
  %5 = alloca ptr, align 8
  %6 = alloca i32, align 4
  store ptr %0, ptr %3, align 8
  call void @llvm.lifetime.start.p0(i64 4, ptr %4) #14
  call void @llvm.lifetime.start.p0(i64 8, ptr %5) #14
  %7 = load ptr, ptr %3, align 8
  %8 = getelementptr inbounds nuw %struct.wtap_writer, ptr %7, i32 0, i32 11
  store ptr %8, ptr %5, align 8
  %9 = load ptr, ptr %3, align 8
  %10 = getelementptr inbounds nuw %struct.wtap_writer, ptr %9, i32 0, i32 3
  %11 = load i32, ptr %10, align 4
  %12 = zext i32 %11 to i64
  %13 = call noalias ptr @g_try_malloc(i64 noundef %12) #16
  %14 = load ptr, ptr %3, align 8
  %15 = getelementptr inbounds nuw %struct.wtap_writer, ptr %14, i32 0, i32 4
  store ptr %13, ptr %15, align 8
  %16 = load ptr, ptr %3, align 8
  %17 = getelementptr inbounds nuw %struct.wtap_writer, ptr %16, i32 0, i32 3
  %18 = load i32, ptr %17, align 4
  %19 = zext i32 %18 to i64
  %20 = call noalias ptr @g_try_malloc(i64 noundef %19) #16
  %21 = load ptr, ptr %3, align 8
  %22 = getelementptr inbounds nuw %struct.wtap_writer, ptr %21, i32 0, i32 5
  store ptr %20, ptr %22, align 8
  %23 = load ptr, ptr %3, align 8
  %24 = getelementptr inbounds nuw %struct.wtap_writer, ptr %23, i32 0, i32 4
  %25 = load ptr, ptr %24, align 8
  %26 = icmp eq ptr %25, null
  br i1 %26, label %32, label %27

27:                                               ; preds = %1
  %28 = load ptr, ptr %3, align 8
  %29 = getelementptr inbounds nuw %struct.wtap_writer, ptr %28, i32 0, i32 5
  %30 = load ptr, ptr %29, align 8
  %31 = icmp eq ptr %30, null
  br i1 %31, label %32, label %41

32:                                               ; preds = %27, %1
  %33 = load ptr, ptr %3, align 8
  %34 = getelementptr inbounds nuw %struct.wtap_writer, ptr %33, i32 0, i32 5
  %35 = load ptr, ptr %34, align 8
  call void @g_free(ptr noundef %35)
  %36 = load ptr, ptr %3, align 8
  %37 = getelementptr inbounds nuw %struct.wtap_writer, ptr %36, i32 0, i32 4
  %38 = load ptr, ptr %37, align 8
  call void @g_free(ptr noundef %38)
  %39 = load ptr, ptr %3, align 8
  %40 = getelementptr inbounds nuw %struct.wtap_writer, ptr %39, i32 0, i32 9
  store i32 12, ptr %40, align 8
  store i32 -1, ptr %2, align 4
  store i32 1, ptr %6, align 4
  br label %97

41:                                               ; preds = %27
  %42 = load ptr, ptr %5, align 8
  %43 = getelementptr inbounds nuw %struct.z_stream_s, ptr %42, i32 0, i32 8
  store ptr null, ptr %43, align 8
  %44 = load ptr, ptr %5, align 8
  %45 = getelementptr inbounds nuw %struct.z_stream_s, ptr %44, i32 0, i32 9
  store ptr null, ptr %45, align 8
  %46 = load ptr, ptr %5, align 8
  %47 = getelementptr inbounds nuw %struct.z_stream_s, ptr %46, i32 0, i32 10
  store ptr null, ptr %47, align 8
  %48 = load ptr, ptr %5, align 8
  %49 = load ptr, ptr %3, align 8
  %50 = getelementptr inbounds nuw %struct.wtap_writer, ptr %49, i32 0, i32 7
  %51 = load i32, ptr %50, align 8
  %52 = load ptr, ptr %3, align 8
  %53 = getelementptr inbounds nuw %struct.wtap_writer, ptr %52, i32 0, i32 8
  %54 = load i32, ptr %53, align 4
  %55 = call i32 @deflateInit2_(ptr noundef %48, i32 noundef %51, i32 noundef 8, i32 noundef 31, i32 noundef 8, i32 noundef %54, ptr noundef @.str, i32 noundef 112)
  store i32 %55, ptr %4, align 4
  %56 = load i32, ptr %4, align 4
  %57 = icmp ne i32 %56, 0
  br i1 %57, label %58, label %76

58:                                               ; preds = %41
  %59 = load ptr, ptr %3, align 8
  %60 = getelementptr inbounds nuw %struct.wtap_writer, ptr %59, i32 0, i32 5
  %61 = load ptr, ptr %60, align 8
  call void @g_free(ptr noundef %61)
  %62 = load ptr, ptr %3, align 8
  %63 = getelementptr inbounds nuw %struct.wtap_writer, ptr %62, i32 0, i32 4
  %64 = load ptr, ptr %63, align 8
  call void @g_free(ptr noundef %64)
  %65 = load i32, ptr %4, align 4
  %66 = icmp eq i32 %65, -4
  br i1 %66, label %67, label %70

67:                                               ; preds = %58
  %68 = load ptr, ptr %3, align 8
  %69 = getelementptr inbounds nuw %struct.wtap_writer, ptr %68, i32 0, i32 9
  store i32 12, ptr %69, align 8
  br label %75

70:                                               ; preds = %58
  %71 = load ptr, ptr %3, align 8
  %72 = getelementptr inbounds nuw %struct.wtap_writer, ptr %71, i32 0, i32 9
  store i32 -21, ptr %72, align 8
  %73 = load ptr, ptr %3, align 8
  %74 = getelementptr inbounds nuw %struct.wtap_writer, ptr %73, i32 0, i32 10
  store ptr @.str.21, ptr %74, align 8
  br label %75

75:                                               ; preds = %70, %67
  store i32 -1, ptr %2, align 4
  store i32 1, ptr %6, align 4
  br label %97

76:                                               ; preds = %41
  %77 = load ptr, ptr %3, align 8
  %78 = getelementptr inbounds nuw %struct.wtap_writer, ptr %77, i32 0, i32 3
  %79 = load i32, ptr %78, align 4
  %80 = load ptr, ptr %3, align 8
  %81 = getelementptr inbounds nuw %struct.wtap_writer, ptr %80, i32 0, i32 2
  store i32 %79, ptr %81, align 8
  %82 = load ptr, ptr %3, align 8
  %83 = getelementptr inbounds nuw %struct.wtap_writer, ptr %82, i32 0, i32 2
  %84 = load i32, ptr %83, align 8
  %85 = load ptr, ptr %5, align 8
  %86 = getelementptr inbounds nuw %struct.z_stream_s, ptr %85, i32 0, i32 4
  store i32 %84, ptr %86, align 8
  %87 = load ptr, ptr %3, align 8
  %88 = getelementptr inbounds nuw %struct.wtap_writer, ptr %87, i32 0, i32 5
  %89 = load ptr, ptr %88, align 8
  %90 = load ptr, ptr %5, align 8
  %91 = getelementptr inbounds nuw %struct.z_stream_s, ptr %90, i32 0, i32 3
  store ptr %89, ptr %91, align 8
  %92 = load ptr, ptr %5, align 8
  %93 = getelementptr inbounds nuw %struct.z_stream_s, ptr %92, i32 0, i32 3
  %94 = load ptr, ptr %93, align 8
  %95 = load ptr, ptr %3, align 8
  %96 = getelementptr inbounds nuw %struct.wtap_writer, ptr %95, i32 0, i32 6
  store ptr %94, ptr %96, align 8
  store i32 0, ptr %2, align 4
  store i32 1, ptr %6, align 4
  br label %97

97:                                               ; preds = %76, %75, %32
  call void @llvm.lifetime.end.p0(i64 8, ptr %5) #14
  call void @llvm.lifetime.end.p0(i64 4, ptr %4) #14
  %98 = load i32, ptr %2, align 4
  ret i32 %98
}