; Function Attrs: null_pointer_is_valid sspstrong uwtable
define internal fastcc range(i32 -1, 1) i32 @gz_init(ptr noundef initializes((24, 40)) %0) unnamed_addr #0 {
  %2 = getelementptr inbounds nuw i8, ptr %0, i64 20
  %3 = load i32, ptr %2, align 4
  %4 = zext i32 %3 to i64
  %5 = tail call noalias ptr @g_try_malloc(i64 noundef %4) #22
  %6 = getelementptr inbounds nuw i8, ptr %0, i64 24
  store ptr %5, ptr %6, align 8
  %7 = load i32, ptr %2, align 4
  %8 = zext i32 %7 to i64
  %9 = tail call noalias ptr @g_try_malloc(i64 noundef %8) #22
  %10 = getelementptr inbounds nuw i8, ptr %0, i64 32
  store ptr %9, ptr %10, align 8
  %11 = load ptr, ptr %6, align 8
  %12 = icmp eq ptr %11, null
  %13 = icmp eq ptr %9, null
  %or.cond = select i1 %12, i1 true, i1 %13
  br i1 %or.cond, label %14, label %17

14:                                               ; preds = %1
  tail call void @g_free(ptr noundef %9)
  %15 = load ptr, ptr %6, align 8
  tail call void @g_free(ptr noundef %15)
  %16 = getelementptr inbounds nuw i8, ptr %0, i64 56
  store i32 12, ptr %16, align 8
  br label %40

17:                                               ; preds = %1
  %18 = getelementptr inbounds nuw i8, ptr %0, i64 72
  %19 = getelementptr inbounds nuw i8, ptr %0, i64 136
  %20 = getelementptr inbounds nuw i8, ptr %0, i64 48
  tail call void @llvm.memset.p0.i64(ptr noundef nonnull align 8 dereferenceable(24) %19, i8 0, i64 24, i1 false)
  %21 = load i32, ptr %20, align 8
  %22 = getelementptr inbounds nuw i8, ptr %0, i64 52
  %23 = load i32, ptr %22, align 4
  %24 = tail call i32 @deflateInit2_(ptr noundef nonnull %18, i32 noundef %21, i32 noundef 8, i32 noundef 31, i32 noundef 8, i32 noundef %23, ptr noundef nonnull @.str, i32 noundef 112)
  %.not = icmp eq i32 %24, 0
  br i1 %.not, label %33, label %25

25:                                               ; preds = %17
  %26 = load ptr, ptr %10, align 8
  tail call void @g_free(ptr noundef %26)
  %27 = load ptr, ptr %6, align 8
  tail call void @g_free(ptr noundef %27)
  %28 = icmp eq i32 %24, -4
  %29 = getelementptr inbounds nuw i8, ptr %0, i64 56
  br i1 %28, label %30, label %31

30:                                               ; preds = %25
  store i32 12, ptr %29, align 8
  br label %40

31:                                               ; preds = %25
  store i32 -21, ptr %29, align 8
  %32 = getelementptr inbounds nuw i8, ptr %0, i64 64
  store ptr @.str.21, ptr %32, align 8
  br label %40

33:                                               ; preds = %17
  %34 = load i32, ptr %2, align 4
  %35 = getelementptr inbounds nuw i8, ptr %0, i64 16
  store i32 %34, ptr %35, align 8
  %36 = getelementptr inbounds nuw i8, ptr %0, i64 104
  store i32 %34, ptr %36, align 8
  %37 = load ptr, ptr %10, align 8
  %38 = getelementptr inbounds nuw i8, ptr %0, i64 96
  store ptr %37, ptr %38, align 8
  %39 = getelementptr inbounds nuw i8, ptr %0, i64 40
  store ptr %37, ptr %39, align 8
  br label %40

40:                                               ; preds = %30, %31, %33, %14
  %.0 = phi i32 [ -1, %14 ], [ 0, %33 ], [ -1, %31 ], [ -1, %30 ]
  ret i32 %.0
}